; Function Attrs: mustprogress nounwind uwtable
define internal fastcc noundef zeroext i1 @_ZNK12_GLOBAL__N_129CounterCoverageMappingBuilder20isExprInSystemHeaderEPKN5clang14BinaryOperatorE(ptr nocapture noundef nonnull readonly align 8 dereferenceable(2376) %0, ptr nocapture noundef readonly %1) unnamed_addr #0 align 2 {
  %3 = load i8, ptr getelementptr inbounds (i8, ptr @_ZN4llvm8coverage21SystemHeadersCoverageE, i64 128), align 8
  %4 = trunc i8 %3 to i1
  br i1 %4, label %_ZNK5clang13SourceManager16isInSystemHeaderENS_14SourceLocationE.exit16, label %5

5:                                                ; preds = %2
  %6 = getelementptr inbounds nuw i8, ptr %0, i64 8
  %7 = load ptr, ptr %6, align 8
  %8 = getelementptr inbounds nuw i8, ptr %1, i64 4
  %.sroa.0.0.copyload.i = load i32, ptr %8, align 4
  %9 = icmp sgt i32 %.sroa.0.0.copyload.i, -1
  br i1 %9, label %_ZNK5clang13SourceManager14getSpellingLocENS_14SourceLocationE.exit, label %10

10:                                               ; preds = %5
  %11 = tail call i32 @_ZNK5clang13SourceManager22getSpellingLocSlowCaseENS_14SourceLocationE(ptr noundef nonnull align 8 dereferenceable(696) %7, i32 %.sroa.0.0.copyload.i) #22
  br label %_ZNK5clang13SourceManager14getSpellingLocENS_14SourceLocationE.exit

_ZNK5clang13SourceManager14getSpellingLocENS_14SourceLocationE.exit: ; preds = %5, %10
  %.sroa.01.0.i = phi i32 [ %11, %10 ], [ %.sroa.0.0.copyload.i, %5 ]
  %12 = icmp eq i32 %.sroa.01.0.i, 0
  br i1 %12, label %_ZNK5clang13SourceManager16isInSystemHeaderENS_14SourceLocationE.exit16, label %_ZNK5clang13SourceManager16isInSystemHeaderENS_14SourceLocationE.exit

_ZNK5clang13SourceManager16isInSystemHeaderENS_14SourceLocationE.exit: ; preds = %_ZNK5clang13SourceManager14getSpellingLocENS_14SourceLocationE.exit
  %13 = tail call noundef i32 @_ZNK5clang13SourceManager21getFileCharacteristicENS_14SourceLocationE(ptr noundef nonnull align 8 dereferenceable(696) %7, i32 %.sroa.01.0.i) #22
  switch i32 %13, label %14 [
    i32 3, label %_ZNK5clang13SourceManager16isInSystemHeaderENS_14SourceLocationE.exit16
    i32 0, label %_ZNK5clang13SourceManager16isInSystemHeaderENS_14SourceLocationE.exit16
  ]

14:                                               ; preds = %_ZNK5clang13SourceManager16isInSystemHeaderENS_14SourceLocationE.exit
  %15 = load ptr, ptr %6, align 8
  %16 = getelementptr inbounds nuw i8, ptr %1, i64 16
  %17 = load ptr, ptr %16, align 8
  %18 = tail call i32 @_ZNK5clang4Stmt11getBeginLocEv(ptr noundef nonnull align 8 dereferenceable(8) %17) #26
  %19 = icmp sgt i32 %18, -1
  br i1 %19, label %_ZNK5clang13SourceManager14getSpellingLocENS_14SourceLocationE.exit10, label %20

20:                                               ; preds = %14
  %21 = tail call i32 @_ZNK5clang13SourceManager22getSpellingLocSlowCaseENS_14SourceLocationE(ptr noundef nonnull align 8 dereferenceable(696) %15, i32 %18) #22
  br label %_ZNK5clang13SourceManager14getSpellingLocENS_14SourceLocationE.exit10

_ZNK5clang13SourceManager14getSpellingLocENS_14SourceLocationE.exit10: ; preds = %14, %20
  %.sroa.01.0.i9 = phi i32 [ %21, %20 ], [ %18, %14 ]
  %22 = icmp eq i32 %.sroa.01.0.i9, 0
  br i1 %22, label %_ZNK5clang13SourceManager16isInSystemHeaderENS_14SourceLocationE.exit16, label %_ZNK5clang13SourceManager16isInSystemHeaderENS_14SourceLocationE.exit12

_ZNK5clang13SourceManager16isInSystemHeaderENS_14SourceLocationE.exit12: ; preds = %_ZNK5clang13SourceManager14getSpellingLocENS_14SourceLocationE.exit10
  %23 = tail call noundef i32 @_ZNK5clang13SourceManager21getFileCharacteristicENS_14SourceLocationE(ptr noundef nonnull align 8 dereferenceable(696) %15, i32 %.sroa.01.0.i9) #22
  switch i32 %23, label %24 [
    i32 3, label %_ZNK5clang13SourceManager16isInSystemHeaderENS_14SourceLocationE.exit16
    i32 0, label %_ZNK5clang13SourceManager16isInSystemHeaderENS_14SourceLocationE.exit16
  ]

24:                                               ; preds = %_ZNK5clang13SourceManager16isInSystemHeaderENS_14SourceLocationE.exit12
  %25 = load ptr, ptr %6, align 8
  %26 = getelementptr inbounds i8, ptr %1, i64 24
  %27 = load ptr, ptr %26, align 8
  %28 = tail call i32 @_ZNK5clang4Stmt9getEndLocEv(ptr noundef nonnull align 8 dereferenceable(8) %27) #26
  %29 = icmp sgt i32 %28, -1
  br i1 %29, label %_ZNK5clang13SourceManager14getSpellingLocENS_14SourceLocationE.exit14, label %30

30:                                               ; preds = %24
  %31 = tail call i32 @_ZNK5clang13SourceManager22getSpellingLocSlowCaseENS_14SourceLocationE(ptr noundef nonnull align 8 dereferenceable(696) %25, i32 %28) #22
  br label %_ZNK5clang13SourceManager14getSpellingLocENS_14SourceLocationE.exit14

_ZNK5clang13SourceManager14getSpellingLocENS_14SourceLocationE.exit14: ; preds = %24, %30
  %.sroa.01.0.i13 = phi i32 [ %31, %30 ], [ %28, %24 ]
  %32 = icmp eq i32 %.sroa.01.0.i13, 0
  br i1 %32, label %_ZNK5clang13SourceManager16isInSystemHeaderENS_14SourceLocationE.exit16, label %33

33:                                               ; preds = %_ZNK5clang13SourceManager14getSpellingLocENS_14SourceLocationE.exit14
  %34 = tail call noundef i32 @_ZNK5clang13SourceManager21getFileCharacteristicENS_14SourceLocationE(ptr noundef nonnull align 8 dereferenceable(696) %25, i32 %.sroa.01.0.i13) #22
  %35 = icmp ne i32 %34, 0
  %36 = icmp ne i32 %34, 3
  %37 = and i1 %35, %36
  br label %_ZNK5clang13SourceManager16isInSystemHeaderENS_14SourceLocationE.exit16

_ZNK5clang13SourceManager16isInSystemHeaderENS_14SourceLocationE.exit16: ; preds = %_ZNK5clang13SourceManager16isInSystemHeaderENS_14SourceLocationE.exit12, %_ZNK5clang13SourceManager16isInSystemHeaderENS_14SourceLocationE.exit12, %_ZNK5clang13SourceManager16isInSystemHeaderENS_14SourceLocationE.exit, %_ZNK5clang13SourceManager16isInSystemHeaderENS_14SourceLocationE.exit, %_ZNK5clang13SourceManager14getSpellingLocENS_14SourceLocationE.exit10, %_ZNK5clang13SourceManager14getSpellingLocENS_14SourceLocationE.exit, %33, %_ZNK5clang13SourceManager14getSpellingLocENS_14SourceLocationE.exit14, %2
  %38 = phi i1 [ false, %_ZNK5clang13SourceManager16isInSystemHeaderENS_14SourceLocationE.exit12 ], [ false, %_ZNK5clang13SourceManager16isInSystemHeaderENS_14SourceLocationE.exit ], [ false, %2 ], [ %37, %33 ], [ false, %_ZNK5clang13SourceManager14getSpellingLocENS_14SourceLocationE.exit14 ], [ false, %_ZNK5clang13SourceManager14getSpellingLocENS_14SourceLocationE.exit ], [ false, %_ZNK5clang13SourceManager14getSpellingLocENS_14SourceLocationE.exit10 ], [ false, %_ZNK5clang13SourceManager16isInSystemHeaderENS_14SourceLocationE.exit ], [ false, %_ZNK5clang13SourceManager16isInSystemHeaderENS_14SourceLocationE.exit12 ]
  ret i1 %38
}